target datalayout = "e-m:e-p270:32:32-p271:32:32-p272:64:64-i64:64-i128:128-f80:128-n8:16:32:64-S128"
target triple = "x86_64-pc-linux-gnu"

%struct.FunctionCallInfoBaseData = type { ptr, ptr, ptr, i32, i8, i16, [0 x %struct.NullableDatum] }
%struct.NullableDatum = type { i64, i8 }
%struct.LargeObjectDesc = type { i32, ptr, i32, i64, i32 }

@.str = private unnamed_addr constant [19 x i8] c"lo_open(INV_WRITE)\00", align 1
@fscxt = internal global ptr null, align 8
@TopTransactionResourceOwner = external global ptr, align 8
@cookies = internal global ptr null, align 8
@cookies_size = internal global i32 0, align 4
@lo_cleanup_needed = internal global i8 0, align 1
@TopMemoryContext = external global ptr, align 8
@.str.24 = private unnamed_addr constant [11 x i8] c"Filesystem\00", align 1

; Function Attrs: inlinehint nounwind uwtable
define internal i64 @Int32GetDatum(i32 noundef %0) #2 {
  %2 = alloca i32, align 4
  store i32 %0, ptr %2, align 4
  %3 = load i32, ptr %2, align 4
  %4 = sext i32 %3 to i64
  ret i64 %4
}

; Function Attrs: nounwind uwtable
define internal i32 @newLOfd() #0 {
  %1 = alloca i32, align 4
  %2 = alloca i32, align 4
  %3 = alloca i32, align 4
  %4 = alloca i32, align 4
  %5 = alloca i32, align 4
  call void @llvm.lifetime.start.p0(i64 4, ptr %2) #8
  call void @llvm.lifetime.start.p0(i64 4, ptr %3) #8
  store i8 1, ptr @lo_cleanup_needed, align 1
  %6 = load ptr, ptr @fscxt, align 8
  %7 = icmp eq ptr %6, null
  br i1 %7, label %8, label %14

8:                                                ; preds = %0
  br label %9

9:                                                ; preds = %8
  br label %10

10:                                               ; preds = %9
  br label %11

11:                                               ; preds = %10
  store i32 1, ptr %4, align 4
  %12 = load ptr, ptr @TopMemoryContext, align 8
  %13 = call ptr @AllocSetContextCreateInternal(ptr noundef %12, ptr noundef @.str.24, i64 noundef 0, i64 noundef 8192, i64 noundef 8388608)
  store ptr %13, ptr @fscxt, align 8
  br label %14

14:                                               ; preds = %11, %0
  store i32 0, ptr %2, align 4
  br label %15

15:                                               ; preds = %29, %14
  %16 = load i32, ptr %2, align 4
  %17 = load i32, ptr @cookies_size, align 4
  %18 = icmp slt i32 %16, %17
  br i1 %18, label %19, label %32

19:                                               ; preds = %15
  %20 = load ptr, ptr @cookies, align 8
  %21 = load i32, ptr %2, align 4
  %22 = sext i32 %21 to i64
  %23 = getelementptr inbounds ptr, ptr %20, i64 %22
  %24 = load ptr, ptr %23, align 8
  %25 = icmp eq ptr %24, null
  br i1 %25, label %26, label %28

26:                                               ; preds = %19
  %27 = load i32, ptr %2, align 4
  store i32 %27, ptr %1, align 4
  store i32 1, ptr %5, align 4
  br label %56

28:                                               ; preds = %19
  br label %29

29:                                               ; preds = %28
  %30 = load i32, ptr %2, align 4
  %31 = add i32 %30, 1
  store i32 %31, ptr %2, align 4
  br label %15, !llvm.loop !4

32:                                               ; preds = %15
  %33 = load i32, ptr @cookies_size, align 4
  %34 = icmp sle i32 %33, 0
  br i1 %34, label %35, label %41

35:                                               ; preds = %32
  store i32 0, ptr %2, align 4
  store i32 64, ptr %3, align 4
  %36 = load ptr, ptr @fscxt, align 8
  %37 = load i32, ptr %3, align 4
  %38 = sext i32 %37 to i64
  %39 = mul i64 %38, 8
  %40 = call ptr @MemoryContextAllocZero(ptr noundef %36, i64 noundef %39)
  store ptr %40, ptr @cookies, align 8
  br label %53

41:                                               ; preds = %32
  %42 = load i32, ptr @cookies_size, align 4
  store i32 %42, ptr %2, align 4
  %43 = load i32, ptr @cookies_size, align 4
  %44 = mul i32 %43, 2
  store i32 %44, ptr %3, align 4
  %45 = load ptr, ptr @cookies, align 8
  %46 = load i32, ptr @cookies_size, align 4
  %47 = sext i32 %46 to i64
  %48 = mul i64 8, %47
  %49 = load i32, ptr %3, align 4
  %50 = sext i32 %49 to i64
  %51 = mul i64 8, %50
  %52 = call ptr @repalloc0(ptr noundef %45, i64 noundef %48, i64 noundef %51)
  store ptr %52, ptr @cookies, align 8
  br label %53

53:                                               ; preds = %41, %35
  %54 = load i32, ptr %3, align 4
  store i32 %54, ptr @cookies_size, align 4
  %55 = load i32, ptr %2, align 4
  store i32 %55, ptr %1, align 4
  store i32 1, ptr %5, align 4
  br label %56

56:                                               ; preds = %53, %26
  call void @llvm.lifetime.end.p0(i64 4, ptr %3) #8
  call void @llvm.lifetime.end.p0(i64 4, ptr %2) #8
  %57 = load i32, ptr %1, align 4
  ret i32 %57
}

; Function Attrs: inlinehint nounwind uwtable
define internal i32 @DatumGetInt32(i64 noundef %0) #2 {
  %2 = alloca i64, align 8
  store i64 %0, ptr %2, align 8
  %3 = load i64, ptr %2, align 8
  %4 = trunc i64 %3 to i32
  ret i32 %4
}

; Function Attrs: inlinehint nounwind uwtable
define internal i32 @DatumGetObjectId(i64 noundef %0) #2 {
  %2 = alloca i64, align 8
  store i64 %0, ptr %2, align 8
  %3 = load i64, ptr %2, align 8
  %4 = trunc i64 %3 to i32
  ret i32 %4
}

; Function Attrs: nounwind uwtable
define dso_local i64 @be_lo_open(ptr noundef %0) #0 {
  %2 = alloca ptr, align 8
  %3 = alloca i32, align 4
  %4 = alloca i32, align 4
  %5 = alloca ptr, align 8
  %6 = alloca i32, align 4
  store ptr %0, ptr %2, align 8
  call void @llvm.lifetime.start.p0(i64 4, ptr %3) #8
  %7 = load ptr, ptr %2, align 8
  %8 = getelementptr inbounds nuw %struct.FunctionCallInfoBaseData, ptr %7, i32 0, i32 6
  %9 = getelementptr inbounds [0 x %struct.NullableDatum], ptr %8, i64 0, i64 0
  %10 = getelementptr inbounds nuw %struct.NullableDatum, ptr %9, i32 0, i32 0
  %11 = load i64, ptr %10, align 8
  %12 = call i32 @DatumGetObjectId(i64 noundef %11)
  store i32 %12, ptr %3, align 4
  call void @llvm.lifetime.start.p0(i64 4, ptr %4) #8
  %13 = load ptr, ptr %2, align 8
  %14 = getelementptr inbounds nuw %struct.FunctionCallInfoBaseData, ptr %13, i32 0, i32 6
  %15 = getelementptr inbounds [0 x %struct.NullableDatum], ptr %14, i64 0, i64 1
  %16 = getelementptr inbounds nuw %struct.NullableDatum, ptr %15, i32 0, i32 0
  %17 = load i64, ptr %16, align 8
  %18 = call i32 @DatumGetInt32(i64 noundef %17)
  store i32 %18, ptr %4, align 4
  call void @llvm.lifetime.start.p0(i64 8, ptr %5) #8
  call void @llvm.lifetime.start.p0(i64 4, ptr %6) #8
  %19 = load i32, ptr %4, align 4
  %20 = and i32 %19, 131072
  %21 = icmp ne i32 %20, 0
  br i1 %21, label %22, label %23

22:                                               ; preds = %1
  call void @PreventCommandIfReadOnly(ptr noundef @.str)
  br label %23

23:                                               ; preds = %22, %1
  %24 = call i32 @newLOfd()
  store i32 %24, ptr %6, align 4
  %25 = load i32, ptr %3, align 4
  %26 = load i32, ptr %4, align 4
  %27 = load ptr, ptr @fscxt, align 8
  %28 = call ptr @inv_open(i32 noundef %25, i32 noundef %26, ptr noundef %27)
  store ptr %28, ptr %5, align 8
  %29 = call i32 @GetCurrentSubTransactionId()
  %30 = load ptr, ptr %5, align 8
  %31 = getelementptr inbounds nuw %struct.LargeObjectDesc, ptr %30, i32 0, i32 2
  store i32 %29, ptr %31, align 8
  %32 = load ptr, ptr %5, align 8
  %33 = getelementptr inbounds nuw %struct.LargeObjectDesc, ptr %32, i32 0, i32 1
  %34 = load ptr, ptr %33, align 8
  %35 = icmp ne ptr %34, null
  br i1 %35, label %36, label %44

36:                                               ; preds = %23
  %37 = load ptr, ptr %5, align 8
  %38 = getelementptr inbounds nuw %struct.LargeObjectDesc, ptr %37, i32 0, i32 1
  %39 = load ptr, ptr %38, align 8
  %40 = load ptr, ptr @TopTransactionResourceOwner, align 8
  %41 = call ptr @RegisterSnapshotOnOwner(ptr noundef %39, ptr noundef %40)
  %42 = load ptr, ptr %5, align 8
  %43 = getelementptr inbounds nuw %struct.LargeObjectDesc, ptr %42, i32 0, i32 1
  store ptr %41, ptr %43, align 8
  br label %44

44:                                               ; preds = %36, %23
  %45 = load ptr, ptr %5, align 8
  %46 = load ptr, ptr @cookies, align 8
  %47 = load i32, ptr %6, align 4
  %48 = sext i32 %47 to i64
  %49 = getelementptr inbounds ptr, ptr %46, i64 %48
  store ptr %45, ptr %49, align 8
  %50 = load i32, ptr %6, align 4
  %51 = call i64 @Int32GetDatum(i32 noundef %50)
  call void @llvm.lifetime.end.p0(i64 4, ptr %6) #8
  call void @llvm.lifetime.end.p0(i64 8, ptr %5) #8
  call void @llvm.lifetime.end.p0(i64 4, ptr %4) #8
  call void @llvm.lifetime.end.p0(i64 4, ptr %3) #8
  ret i64 %51
}