; Function Attrs: nounwind uwtable
define dso_local range(i64 -2147483648, 2147483648) i64 @be_lo_open(ptr noundef readonly captures(none) %0) local_unnamed_addr #0 {
  %2 = getelementptr inbounds nuw i8, ptr %0, i64 32
  %3 = load i64, ptr %2, align 8
  %4 = trunc i64 %3 to i32
  %5 = getelementptr inbounds nuw i8, ptr %0, i64 48
  %6 = load i64, ptr %5, align 8
  %7 = trunc i64 %6 to i32
  %8 = and i32 %7, 131072
  %.not = icmp eq i32 %8, 0
  br i1 %.not, label %10, label %9

9:                                                ; preds = %1
  tail call void @PreventCommandIfReadOnly(ptr noundef nonnull @.str) #10
  br label %10

10:                                               ; preds = %9, %1
  store i1 true, ptr @lo_cleanup_needed, align 1
  %11 = load ptr, ptr @fscxt, align 8
  %12 = icmp eq ptr %11, null
  br i1 %12, label %13, label %16

13:                                               ; preds = %10
  %14 = load ptr, ptr @TopMemoryContext, align 8
  %15 = tail call ptr @AllocSetContextCreateInternal(ptr noundef %14, ptr noundef nonnull @.str.24, i64 noundef 0, i64 noundef 8192, i64 noundef 8388608) #10
  store ptr %15, ptr @fscxt, align 8
  br label %16

16:                                               ; preds = %13, %10
  %17 = phi ptr [ %15, %13 ], [ %11, %10 ]
  %18 = load i32, ptr @cookies_size, align 4
  %19 = icmp sgt i32 %18, 0
  br i1 %19, label %.lr.ph.i, label %._crit_edge.thread.i

.lr.ph.i:                                         ; preds = %16
  %20 = load ptr, ptr @cookies, align 8
  %wide.trip.count.i = zext nneg i32 %18 to i64
  br label %21

21:                                               ; preds = %25, %.lr.ph.i
  %indvars.iv.i = phi i64 [ 0, %.lr.ph.i ], [ %indvars.iv.next.i, %25 ]
  %22 = getelementptr inbounds nuw ptr, ptr %20, i64 %indvars.iv.i
  %23 = load ptr, ptr %22, align 8
  %24 = icmp eq ptr %23, null
  br i1 %24, label %.loopexit.loopexit.i, label %25

25:                                               ; preds = %21
  %indvars.iv.next.i = add nuw nsw i64 %indvars.iv.i, 1
  %exitcond.not.i = icmp eq i64 %indvars.iv.next.i, %wide.trip.count.i
  br i1 %exitcond.not.i, label %._crit_edge.i, label %21, !llvm.loop !4

._crit_edge.i:                                    ; preds = %25
  %26 = shl nuw i32 %18, 1
  %27 = shl nuw nsw i64 %wide.trip.count.i, 3
  %28 = sext i32 %26 to i64
  %29 = shl nsw i64 %28, 3
  %30 = tail call ptr @repalloc0(ptr noundef nonnull %20, i64 noundef %27, i64 noundef %29) #10
  br label %32

._crit_edge.thread.i:                             ; preds = %16
  %31 = tail call ptr @MemoryContextAllocZero(ptr noundef %17, i64 noundef 512) #10
  br label %32

32:                                               ; preds = %._crit_edge.i, %._crit_edge.thread.i
  %storemerge.i = phi ptr [ %30, %._crit_edge.i ], [ %31, %._crit_edge.thread.i ]
  %.1.i = phi i32 [ %18, %._crit_edge.i ], [ 0, %._crit_edge.thread.i ]
  %.09.i = phi i32 [ %26, %._crit_edge.i ], [ 64, %._crit_edge.thread.i ]
  store ptr %storemerge.i, ptr @cookies, align 8
  store i32 %.09.i, ptr @cookies_size, align 4
  %.pre = load ptr, ptr @fscxt, align 8
  br label %newLOfd.exit

.loopexit.loopexit.i:                             ; preds = %21
  %33 = trunc nuw nsw i64 %indvars.iv.i to i32
  br label %newLOfd.exit

newLOfd.exit:                                     ; preds = %32, %.loopexit.loopexit.i
  %34 = phi ptr [ %.pre, %32 ], [ %17, %.loopexit.loopexit.i ]
  %.0.i = phi i32 [ %.1.i, %32 ], [ %33, %.loopexit.loopexit.i ]
  %35 = tail call ptr @inv_open(i32 noundef %4, i32 noundef %7, ptr noundef %34) #10
  %36 = tail call i32 @GetCurrentSubTransactionId() #10
  %37 = getelementptr inbounds nuw i8, ptr %35, i64 16
  store i32 %36, ptr %37, align 8
  %38 = getelementptr inbounds nuw i8, ptr %35, i64 8
  %39 = load ptr, ptr %38, align 8
  %.not11 = icmp eq ptr %39, null
  br i1 %.not11, label %43, label %40

40:                                               ; preds = %newLOfd.exit
  %41 = load ptr, ptr @TopTransactionResourceOwner, align 8
  %42 = tail call ptr @RegisterSnapshotOnOwner(ptr noundef nonnull %39, ptr noundef %41) #10
  store ptr %42, ptr %38, align 8
  br label %43

43:                                               ; preds = %40, %newLOfd.exit
  %44 = load ptr, ptr @cookies, align 8
  %45 = sext i32 %.0.i to i64
  %46 = getelementptr inbounds ptr, ptr %44, i64 %45
  store ptr %35, ptr %46, align 8
  ret i64 %45
}